target datalayout = "e-m:e-p270:32:32-p271:32:32-p272:64:64-i64:64-i128:128-f80:128-n8:16:32:64-S128"
target triple = "x86_64-unknown-linux-gnu"

%"class.std::__shared_count" = type { ptr }
%"struct.std::_Vector_base" = type { %"struct.std::_Vector_base<arrow::TypeHolder, std::allocator<arrow::TypeHolder>>::_Vector_impl" }
%"struct.std::_Vector_base<arrow::TypeHolder, std::allocator<arrow::TypeHolder>>::_Vector_impl" = type { %"struct.std::_Vector_base<arrow::TypeHolder, std::allocator<arrow::TypeHolder>>::_Vector_impl_data" }
%"struct.std::_Vector_base<arrow::TypeHolder, std::allocator<arrow::TypeHolder>>::_Vector_impl_data" = type { ptr, ptr, ptr }
%class.anon.230 = type { ptr }
%"struct.arrow::compute::(anonymous namespace)::GrouperFastImpl" = type { %"class.arrow::compute::Grouper", i32, ptr, %"class.arrow::util::TempVectorStack", %"struct.arrow::compute::LightContext", %"class.std::vector", %"class.std::vector.190", %"class.std::vector.195", %"class.std::vector.200", %"class.std::vector.205", %"class.arrow::compute::RowTableImpl", %"class.arrow::compute::RowTableImpl", %"class.arrow::compute::RowTableEncoder", %"class.arrow::compute::SwissTable", %"class.std::function.218", %"class.std::function.220" }
%"class.arrow::compute::Grouper" = type { ptr }
%"class.arrow::util::TempVectorStack" = type { i32, i64, %"class.std::unique_ptr.81", i64 }
%"class.std::unique_ptr.81" = type { %"struct.std::__uniq_ptr_data.82" }
%"struct.std::__uniq_ptr_data.82" = type { %"class.std::__uniq_ptr_impl.83" }
%"class.std::__uniq_ptr_impl.83" = type { %"class.std::tuple.84" }
%"class.std::tuple.84" = type { %"struct.std::_Tuple_impl.85" }
%"struct.std::_Tuple_impl.85" = type { %"struct.std::_Head_base.88" }
%"struct.std::_Head_base.88" = type { ptr }
%"struct.arrow::compute::LightContext" = type { i64, ptr }
%"class.std::vector" = type { %"struct.std::_Vector_base" }
%"class.std::vector.190" = type { %"struct.std::_Vector_base.191" }
%"struct.std::_Vector_base.191" = type { %"struct.std::_Vector_base<arrow::compute::KeyColumnMetadata, std::allocator<arrow::compute::KeyColumnMetadata>>::_Vector_impl" }
%"struct.std::_Vector_base<arrow::compute::KeyColumnMetadata, std::allocator<arrow::compute::KeyColumnMetadata>>::_Vector_impl" = type { %"struct.std::_Vector_base<arrow::compute::KeyColumnMetadata, std::allocator<arrow::compute::KeyColumnMetadata>>::_Vector_impl_data" }
%"struct.std::_Vector_base<arrow::compute::KeyColumnMetadata, std::allocator<arrow::compute::KeyColumnMetadata>>::_Vector_impl_data" = type { ptr, ptr, ptr }
%"class.std::vector.195" = type { %"struct.std::_Vector_base.196" }
%"struct.std::_Vector_base.196" = type { %"struct.std::_Vector_base<arrow::compute::KeyColumnArray, std::allocator<arrow::compute::KeyColumnArray>>::_Vector_impl" }
%"struct.std::_Vector_base<arrow::compute::KeyColumnArray, std::allocator<arrow::compute::KeyColumnArray>>::_Vector_impl" = type { %"struct.std::_Vector_base<arrow::compute::KeyColumnArray, std::allocator<arrow::compute::KeyColumnArray>>::_Vector_impl_data" }
%"struct.std::_Vector_base<arrow::compute::KeyColumnArray, std::allocator<arrow::compute::KeyColumnArray>>::_Vector_impl_data" = type { ptr, ptr, ptr }
%"class.std::vector.200" = type { %"struct.std::_Vector_base.201" }
%"struct.std::_Vector_base.201" = type { %"struct.std::_Vector_base<unsigned int, std::allocator<unsigned int>>::_Vector_impl" }
%"struct.std::_Vector_base<unsigned int, std::allocator<unsigned int>>::_Vector_impl" = type { %"struct.std::_Vector_base<unsigned int, std::allocator<unsigned int>>::_Vector_impl_data" }
%"struct.std::_Vector_base<unsigned int, std::allocator<unsigned int>>::_Vector_impl_data" = type { ptr, ptr, ptr }
%"class.std::vector.205" = type { %"struct.std::_Vector_base.206" }
%"struct.std::_Vector_base.206" = type { %"struct.std::_Vector_base<std::shared_ptr<arrow::Array>, std::allocator<std::shared_ptr<arrow::Array>>>::_Vector_impl" }
%"struct.std::_Vector_base<std::shared_ptr<arrow::Array>, std::allocator<std::shared_ptr<arrow::Array>>>::_Vector_impl" = type { %"struct.std::_Vector_base<std::shared_ptr<arrow::Array>, std::allocator<std::shared_ptr<arrow::Array>>>::_Vector_impl_data" }
%"struct.std::_Vector_base<std::shared_ptr<arrow::Array>, std::allocator<std::shared_ptr<arrow::Array>>>::_Vector_impl_data" = type { ptr, ptr, ptr }
%"class.arrow::compute::RowTableImpl" = type <{ ptr, %"struct.arrow::compute::RowTableMetadata", %"class.std::unique_ptr.210", %"class.std::unique_ptr.210", %"class.std::unique_ptr.210", [3 x ptr], i64, i64, i64, i64, i8, [7 x i8] }>
%"struct.arrow::compute::RowTableMetadata" = type { i8, i32, i32, i32, i32, i32, %"class.std::vector.190", %"class.std::vector.200", %"class.std::vector.200", %"class.std::vector.200" }
%"class.std::unique_ptr.210" = type { %"struct.std::__uniq_ptr_data.211" }
%"struct.std::__uniq_ptr_data.211" = type { %"class.std::__uniq_ptr_impl.212" }
%"class.std::__uniq_ptr_impl.212" = type { %"class.std::tuple.213" }
%"class.std::tuple.213" = type { %"struct.std::_Tuple_impl.214" }
%"struct.std::_Tuple_impl.214" = type { %"struct.std::_Head_base.217" }
%"struct.std::_Head_base.217" = type { ptr }
%"class.arrow::compute::RowTableEncoder" = type { %"struct.arrow::compute::RowTableMetadata", %"class.std::vector.195", %"class.std::vector.195", %"class.std::vector.200" }
%"class.arrow::compute::SwissTable" = type { i32, i32, i32, %"class.std::shared_ptr.74", %"class.std::shared_ptr.74", i64, ptr }
%"class.std::shared_ptr.74" = type { %"class.std::__shared_ptr.75" }
%"class.std::__shared_ptr.75" = type { ptr, %"class.std::__shared_count" }
%"class.std::function.218" = type { %"class.std::_Function_base", ptr }
%"class.std::_Function_base" = type { %"union.std::_Any_data", ptr }
%"union.std::_Any_data" = type { %"union.std::_Nocopy_types" }
%"union.std::_Nocopy_types" = type { { i64, i64 } }
%"class.std::function.220" = type { %"class.std::_Function_base", ptr }

; Function Attrs: mustprogress nounwind uwtable
define linkonce_odr noundef nonnull align 8 dereferenceable(24) ptr @_ZN5arrow7compute15RowTableEncoder14batch_all_colsEv(ptr noundef nonnull align 8 dereferenceable(192) %this) #2 comdat align 2 {
entry:
  %this.addr = alloca ptr, align 8
  store ptr %this, ptr %this.addr, align 8
  %this1 = load ptr, ptr %this.addr, align 8
  %batch_all_cols_ = getelementptr inbounds %"class.arrow::compute::RowTableEncoder", ptr %this1, i32 0, i32 1
  ret ptr %batch_all_cols_
}

; Function Attrs: mustprogress uwtable
define internal void @_ZZN5arrow7compute12_GLOBAL__N_115GrouperFastImpl4MakeERKSt6vectorINS_10TypeHolderESaIS4_EEPNS0_11ExecContextEENKUliPKtPKjPjPtPvE_clEiSC_SE_SF_SG_SH_(ptr noundef nonnull align 8 dereferenceable(8) %this, i32 noundef %num_keys_to_compare, ptr noundef %selection_may_be_null, ptr noundef %group_ids, ptr noundef %out_num_keys_mismatch, ptr noundef %out_selection_mismatch, ptr noundef %0) #1 align 2 {
entry:
  %this.addr = alloca ptr, align 8
  %num_keys_to_compare.addr = alloca i32, align 4
  %selection_may_be_null.addr = alloca ptr, align 8
  %group_ids.addr = alloca ptr, align 8
  %out_num_keys_mismatch.addr = alloca ptr, align 8
  %out_selection_mismatch.addr = alloca ptr, align 8
  %.addr = alloca ptr, align 8
  store ptr %this, ptr %this.addr, align 8
  store i32 %num_keys_to_compare, ptr %num_keys_to_compare.addr, align 4
  store ptr %selection_may_be_null, ptr %selection_may_be_null.addr, align 8
  store ptr %group_ids, ptr %group_ids.addr, align 8
  store ptr %out_num_keys_mismatch, ptr %out_num_keys_mismatch.addr, align 8
  store ptr %out_selection_mismatch, ptr %out_selection_mismatch.addr, align 8
  store ptr %0, ptr %.addr, align 8
  %this1 = load ptr, ptr %this.addr, align 8
  %1 = load i32, ptr %num_keys_to_compare.addr, align 4
  %2 = load ptr, ptr %selection_may_be_null.addr, align 8
  %3 = load ptr, ptr %group_ids.addr, align 8
  %4 = getelementptr inbounds %class.anon.230, ptr %this1, i32 0, i32 0
  %5 = load ptr, ptr %4, align 8
  %encode_ctx_ = getelementptr inbounds %"struct.arrow::compute::(anonymous namespace)::GrouperFastImpl", ptr %5, i32 0, i32 4
  %6 = load ptr, ptr %out_num_keys_mismatch.addr, align 8
  %7 = load ptr, ptr %out_selection_mismatch.addr, align 8
  %8 = getelementptr inbounds %class.anon.230, ptr %this1, i32 0, i32 0
  %9 = load ptr, ptr %8, align 8
  %encoder_ = getelementptr inbounds %"struct.arrow::compute::(anonymous namespace)::GrouperFastImpl", ptr %9, i32 0, i32 12
  %call = call noundef nonnull align 8 dereferenceable(24) ptr @_ZN5arrow7compute15RowTableEncoder14batch_all_colsEv(ptr noundef nonnull align 8 dereferenceable(192) %encoder_)
  %10 = getelementptr inbounds %class.anon.230, ptr %this1, i32 0, i32 0
  %11 = load ptr, ptr %10, align 8
  %rows_ = getelementptr inbounds %"struct.arrow::compute::(anonymous namespace)::GrouperFastImpl", ptr %11, i32 0, i32 10
  call void @_ZN5arrow7compute10KeyCompare20CompareColumnsToRowsEjPKtPKjPNS0_12LightContextEPjPtRKSt6vectorINS0_14KeyColumnArrayESaISB_EERKNS0_12RowTableImplEbPh(i32 noundef %1, ptr noundef %2, ptr noundef %3, ptr noundef %encode_ctx_, ptr noundef %6, ptr noundef %7, ptr noundef nonnull align 8 dereferenceable(24) %call, ptr noundef nonnull align 8 dereferenceable(209) %rows_, i1 noundef zeroext true, ptr noundef null)
  ret void
}

; Function Attrs: mustprogress nounwind uwtable
define linkonce_odr noundef ptr @_ZNKSt9_Any_data9_M_accessEv(ptr noundef nonnull align 8 dereferenceable(16) %this) #2 comdat align 2 {
entry:
  %this.addr = alloca ptr, align 8
  store ptr %this, ptr %this.addr, align 8
  %this1 = load ptr, ptr %this.addr, align 8
  %arrayidx = getelementptr inbounds [16 x i8], ptr %this1, i64 0, i64 0
  ret ptr %arrayidx
}

; Function Attrs: mustprogress uwtable
define internal void @_ZSt13__invoke_implIvRZN5arrow7compute12_GLOBAL__N_115GrouperFastImpl4MakeERKSt6vectorINS0_10TypeHolderESaIS5_EEPNS1_11ExecContextEEUliPKtPKjPjPtPvE_JiSD_SF_SG_SH_SI_EET_St14__invoke_otherOT0_DpOT1_(ptr noundef nonnull align 8 dereferenceable(8) %__f, ptr noundef nonnull align 4 dereferenceable(4) %__args, ptr noundef nonnull align 8 dereferenceable(8) %__args1, ptr noundef nonnull align 8 dereferenceable(8) %__args3, ptr noundef nonnull align 8 dereferenceable(8) %__args5, ptr noundef nonnull align 8 dereferenceable(8) %__args7, ptr noundef nonnull align 8 dereferenceable(8) %__args9) #1 {
entry:
  %__f.addr = alloca ptr, align 8
  %__args.addr = alloca ptr, align 8
  %__args.addr2 = alloca ptr, align 8
  %__args.addr4 = alloca ptr, align 8
  %__args.addr6 = alloca ptr, align 8
  %__args.addr8 = alloca ptr, align 8
  %__args.addr10 = alloca ptr, align 8
  store ptr %__f, ptr %__f.addr, align 8
  store ptr %__args, ptr %__args.addr, align 8
  store ptr %__args1, ptr %__args.addr2, align 8
  store ptr %__args3, ptr %__args.addr4, align 8
  store ptr %__args5, ptr %__args.addr6, align 8
  store ptr %__args7, ptr %__args.addr8, align 8
  store ptr %__args9, ptr %__args.addr10, align 8
  %0 = load ptr, ptr %__f.addr, align 8
  %1 = load ptr, ptr %__args.addr, align 8
  %2 = load i32, ptr %1, align 4
  %3 = load ptr, ptr %__args.addr2, align 8
  %4 = load ptr, ptr %3, align 8
  %5 = load ptr, ptr %__args.addr4, align 8
  %6 = load ptr, ptr %5, align 8
  %7 = load ptr, ptr %__args.addr6, align 8
  %8 = load ptr, ptr %7, align 8
  %9 = load ptr, ptr %__args.addr8, align 8
  %10 = load ptr, ptr %9, align 8
  %11 = load ptr, ptr %__args.addr10, align 8
  %12 = load ptr, ptr %11, align 8
  call void @_ZZN5arrow7compute12_GLOBAL__N_115GrouperFastImpl4MakeERKSt6vectorINS_10TypeHolderESaIS4_EEPNS0_11ExecContextEENKUliPKtPKjPjPtPvE_clEiSC_SE_SF_SG_SH_(ptr noundef nonnull align 8 dereferenceable(8) %0, i32 noundef %2, ptr noundef %4, ptr noundef %6, ptr noundef %8, ptr noundef %10, ptr noundef %12)
  ret void
}

; Function Attrs: mustprogress nounwind uwtable
define internal noundef nonnull align 8 dereferenceable(8) ptr @_ZNKSt9_Any_data9_M_accessIZN5arrow7compute12_GLOBAL__N_115GrouperFastImpl4MakeERKSt6vectorINS1_10TypeHolderESaIS6_EEPNS2_11ExecContextEEUliPKtPKjPjPtPvE_EERKT_v(ptr noundef nonnull align 8 dereferenceable(16) %this) #2 align 2 {
entry:
  %this.addr = alloca ptr, align 8
  store ptr %this, ptr %this.addr, align 8
  %this1 = load ptr, ptr %this.addr, align 8
  %call = call noundef ptr @_ZNKSt9_Any_data9_M_accessEv(ptr noundef nonnull align 8 dereferenceable(16) %this1) #3
  ret ptr %call
}

; Function Attrs: mustprogress uwtable
define internal void @_ZSt10__invoke_rIvRZN5arrow7compute12_GLOBAL__N_115GrouperFastImpl4MakeERKSt6vectorINS0_10TypeHolderESaIS5_EEPNS1_11ExecContextEEUliPKtPKjPjPtPvE_JiSD_SF_SG_SH_SI_EENSt9enable_ifIX16is_invocable_r_vIT_T0_DpT1_EESM_E4typeEOSN_DpOSO_(ptr noundef nonnull align 8 dereferenceable(8) %__fn, ptr noundef nonnull align 4 dereferenceable(4) %__args, ptr noundef nonnull align 8 dereferenceable(8) %__args1, ptr noundef nonnull align 8 dereferenceable(8) %__args3, ptr noundef nonnull align 8 dereferenceable(8) %__args5, ptr noundef nonnull align 8 dereferenceable(8) %__args7, ptr noundef nonnull align 8 dereferenceable(8) %__args9) #1 {
entry:
  %__fn.addr = alloca ptr, align 8
  %__args.addr = alloca ptr, align 8
  %__args.addr2 = alloca ptr, align 8
  %__args.addr4 = alloca ptr, align 8
  %__args.addr6 = alloca ptr, align 8
  %__args.addr8 = alloca ptr, align 8
  %__args.addr10 = alloca ptr, align 8
  store ptr %__fn, ptr %__fn.addr, align 8
  store ptr %__args, ptr %__args.addr, align 8
  store ptr %__args1, ptr %__args.addr2, align 8
  store ptr %__args3, ptr %__args.addr4, align 8
  store ptr %__args5, ptr %__args.addr6, align 8
  store ptr %__args7, ptr %__args.addr8, align 8
  store ptr %__args9, ptr %__args.addr10, align 8
  %0 = load ptr, ptr %__fn.addr, align 8
  %1 = load ptr, ptr %__args.addr, align 8
  %2 = load ptr, ptr %__args.addr2, align 8
  %3 = load ptr, ptr %__args.addr4, align 8
  %4 = load ptr, ptr %__args.addr6, align 8
  %5 = load ptr, ptr %__args.addr8, align 8
  %6 = load ptr, ptr %__args.addr10, align 8
  call void @_ZSt13__invoke_implIvRZN5arrow7compute12_GLOBAL__N_115GrouperFastImpl4MakeERKSt6vectorINS0_10TypeHolderESaIS5_EEPNS1_11ExecContextEEUliPKtPKjPjPtPvE_JiSD_SF_SG_SH_SI_EET_St14__invoke_otherOT0_DpOT1_(ptr noundef nonnull align 8 dereferenceable(8) %0, ptr noundef nonnull align 4 dereferenceable(4) %1, ptr noundef nonnull align 8 dereferenceable(8) %2, ptr noundef nonnull align 8 dereferenceable(8) %3, ptr noundef nonnull align 8 dereferenceable(8) %4, ptr noundef nonnull align 8 dereferenceable(8) %5, ptr noundef nonnull align 8 dereferenceable(8) %6)
  ret void
}

; Function Attrs: mustprogress nounwind uwtable
define internal noundef ptr @_ZNSt14_Function_base13_Base_managerIZN5arrow7compute12_GLOBAL__N_115GrouperFastImpl4MakeERKSt6vectorINS1_10TypeHolderESaIS6_EEPNS2_11ExecContextEEUliPKtPKjPjPtPvE_E14_M_get_pointerERKSt9_Any_data(ptr noundef nonnull align 8 dereferenceable(16) %__source) #2 align 2 {
entry:
  %__source.addr = alloca ptr, align 8
  %__f = alloca ptr, align 8
  store ptr %__source, ptr %__source.addr, align 8
  %0 = load ptr, ptr %__source.addr, align 8
  %call = call noundef nonnull align 8 dereferenceable(8) ptr @_ZNKSt9_Any_data9_M_accessIZN5arrow7compute12_GLOBAL__N_115GrouperFastImpl4MakeERKSt6vectorINS1_10TypeHolderESaIS6_EEPNS2_11ExecContextEEUliPKtPKjPjPtPvE_EERKT_v(ptr noundef nonnull align 8 dereferenceable(16) %0) #3
  store ptr %call, ptr %__f, align 8
  %1 = load ptr, ptr %__f, align 8
  ret ptr %1
}

; Function Attrs: mustprogress uwtable
define internal void @_ZNSt17_Function_handlerIFviPKtPKjPjPtPvEZN5arrow7compute12_GLOBAL__N_115GrouperFastImpl4MakeERKSt6vectorINS8_10TypeHolderESaISD_EEPNS9_11ExecContextEEUliS1_S3_S4_S5_S6_E_E9_M_invokeERKSt9_Any_dataOiOS1_OS3_OS4_OS5_OS6_(ptr noundef nonnull align 8 dereferenceable(16) %__functor, ptr noundef nonnull align 4 dereferenceable(4) %__args, ptr noundef nonnull align 8 dereferenceable(8) %__args1, ptr noundef nonnull align 8 dereferenceable(8) %__args3, ptr noundef nonnull align 8 dereferenceable(8) %__args5, ptr noundef nonnull align 8 dereferenceable(8) %__args7, ptr noundef nonnull align 8 dereferenceable(8) %__args9) #1 align 2 {
entry:
  %__functor.addr = alloca ptr, align 8
  %__args.addr = alloca ptr, align 8
  %__args.addr2 = alloca ptr, align 8
  %__args.addr4 = alloca ptr, align 8
  %__args.addr6 = alloca ptr, align 8
  %__args.addr8 = alloca ptr, align 8
  %__args.addr10 = alloca ptr, align 8
  store ptr %__functor, ptr %__functor.addr, align 8
  store ptr %__args, ptr %__args.addr, align 8
  store ptr %__args1, ptr %__args.addr2, align 8
  store ptr %__args3, ptr %__args.addr4, align 8
  store ptr %__args5, ptr %__args.addr6, align 8
  store ptr %__args7, ptr %__args.addr8, align 8
  store ptr %__args9, ptr %__args.addr10, align 8
  %0 = load ptr, ptr %__functor.addr, align 8
  %call = call noundef ptr @_ZNSt14_Function_base13_Base_managerIZN5arrow7compute12_GLOBAL__N_115GrouperFastImpl4MakeERKSt6vectorINS1_10TypeHolderESaIS6_EEPNS2_11ExecContextEEUliPKtPKjPjPtPvE_E14_M_get_pointerERKSt9_Any_data(ptr noundef nonnull align 8 dereferenceable(16) %0) #3
  %1 = load ptr, ptr %__args.addr, align 8
  %2 = load ptr, ptr %__args.addr2, align 8
  %3 = load ptr, ptr %__args.addr4, align 8
  %4 = load ptr, ptr %__args.addr6, align 8
  %5 = load ptr, ptr %__args.addr8, align 8
  %6 = load ptr, ptr %__args.addr10, align 8
  call void @_ZSt10__invoke_rIvRZN5arrow7compute12_GLOBAL__N_115GrouperFastImpl4MakeERKSt6vectorINS0_10TypeHolderESaIS5_EEPNS1_11ExecContextEEUliPKtPKjPjPtPvE_JiSD_SF_SG_SH_SI_EENSt9enable_ifIX16is_invocable_r_vIT_T0_DpT1_EESM_E4typeEOSN_DpOSO_(ptr noundef nonnull align 8 dereferenceable(8) %call, ptr noundef nonnull align 4 dereferenceable(4) %1, ptr noundef nonnull align 8 dereferenceable(8) %2, ptr noundef nonnull align 8 dereferenceable(8) %3, ptr noundef nonnull align 8 dereferenceable(8) %4, ptr noundef nonnull align 8 dereferenceable(8) %5, ptr noundef nonnull align 8 dereferenceable(8) %6)
  ret void
}