; Function Attrs: mustprogress uwtable
define internal void @_ZNSt17_Function_handlerIFviPKtPKjPjPtPvEZN5arrow7compute12_GLOBAL__N_115GrouperFastImpl4MakeERKSt6vectorINS8_10TypeHolderESaISD_EEPNS9_11ExecContextEEUliS1_S3_S4_S5_S6_E_E9_M_invokeERKSt9_Any_dataOiOS1_OS3_OS4_OS5_OS6_(ptr nocapture noundef nonnull readonly align 8 dereferenceable(16) %__functor, ptr nocapture noundef nonnull readonly align 4 dereferenceable(4) %__args, ptr nocapture noundef nonnull readonly align 8 dereferenceable(8) %__args1, ptr nocapture noundef nonnull readonly align 8 dereferenceable(8) %__args3, ptr nocapture noundef nonnull readonly align 8 dereferenceable(8) %__args5, ptr nocapture noundef nonnull readonly align 8 dereferenceable(8) %__args7, ptr nocapture nonnull readnone align 8 %__args9) #2 align 2 {
entry:
  %call.val = load ptr, ptr %__functor, align 8
  %__args.val = load i32, ptr %__args, align 4
  %__args1.val = load ptr, ptr %__args1, align 8
  %__args3.val = load ptr, ptr %__args3, align 8
  %__args5.val = load ptr, ptr %__args5, align 8
  %__args7.val = load ptr, ptr %__args7, align 8
  %encode_ctx_.i.i.i = getelementptr inbounds i8, ptr %call.val, i64 56
  %batch_all_cols_.i.i.i.i = getelementptr inbounds i8, ptr %call.val, i64 744
  %rows_.i.i.i = getelementptr inbounds i8, ptr %call.val, i64 192
  tail call void @_ZN5arrow7compute10KeyCompare20CompareColumnsToRowsEjPKtPKjPNS0_12LightContextEPjPtRKSt6vectorINS0_14KeyColumnArrayESaISB_EERKNS0_12RowTableImplEbPh(i32 noundef %__args.val, ptr noundef %__args1.val, ptr noundef %__args3.val, ptr noundef nonnull %encode_ctx_.i.i.i, ptr noundef %__args5.val, ptr noundef %__args7.val, ptr noundef nonnull align 8 dereferenceable(24) %batch_all_cols_.i.i.i.i, ptr noundef nonnull align 8 dereferenceable(209) %rows_.i.i.i, i1 noundef zeroext true, ptr noundef null)
  ret void
}